target datalayout = "e-m:e-p270:32:32-p271:32:32-p272:64:64-i64:64-i128:128-f80:128-n8:16:32:64-S128"
target triple = "x86_64-pc-linux-gnu"

%struct.rb_data_type_struct = type { ptr, %struct.anon, ptr, ptr, i64 }
%struct.anon = type { ptr, ptr, ptr, ptr, [1 x ptr] }

@ossl_ssl_type = constant %struct.rb_data_type_struct { ptr @.str, %struct.anon { ptr @ossl_ssl_mark, ptr @ossl_ssl_free, ptr null, ptr null, [1 x ptr] zeroinitializer }, ptr null, ptr null, i64 33 }, align 8
@rb_eRuntimeError = external global i64, align 8
@.str.267 = private unnamed_addr constant [23 x i8] c"SSL is not initialized\00", align 1

; Function Attrs: nounwind sspstrong uwtable
define internal i64 @ossl_ssl_get_client_ca_list(i64 noundef %0) #0 {
  %2 = alloca i64, align 8
  %3 = alloca i64, align 8
  %4 = alloca ptr, align 8
  %5 = alloca ptr, align 8
  %6 = alloca i32, align 4
  store i64 %0, ptr %3, align 8, !tbaa !14
  call void @llvm.lifetime.start.p0(i64 8, ptr %4) #20
  call void @llvm.lifetime.start.p0(i64 8, ptr %5) #20
  br label %7

7:                                                ; preds = %1
  %8 = load i64, ptr %3, align 8, !tbaa !14
  %9 = call ptr @rb_check_typeddata(i64 noundef %8, ptr noundef @ossl_ssl_type)
  store ptr %9, ptr %4, align 8, !tbaa !10
  %10 = load ptr, ptr %4, align 8, !tbaa !10
  %11 = icmp ne ptr %10, null
  br i1 %11, label %14, label %12

12:                                               ; preds = %7
  %13 = load i64, ptr @rb_eRuntimeError, align 8, !tbaa !14
  call void (i64, ptr, ...) @ossl_raise(i64 noundef %13, ptr noundef @.str.267) #22
  unreachable

14:                                               ; preds = %7
  br label %15

15:                                               ; preds = %14
  br label %16

16:                                               ; preds = %15
  %17 = load ptr, ptr %4, align 8, !tbaa !10
  %18 = call ptr @SSL_get_client_CA_list(ptr noundef %17)
  store ptr %18, ptr %5, align 8, !tbaa !46
  %19 = load ptr, ptr %5, align 8, !tbaa !46
  %20 = icmp ne ptr %19, null
  br i1 %20, label %22, label %21

21:                                               ; preds = %16
  store i64 4, ptr %2, align 8
  store i32 1, ptr %6, align 4
  br label %25

22:                                               ; preds = %16
  %23 = load ptr, ptr %5, align 8, !tbaa !46
  %24 = call i64 @ossl_x509name_sk2ary(ptr noundef %23)
  store i64 %24, ptr %2, align 8
  store i32 1, ptr %6, align 4
  br label %25

25:                                               ; preds = %22, %21
  call void @llvm.lifetime.end.p0(i64 8, ptr %5) #20
  call void @llvm.lifetime.end.p0(i64 8, ptr %4) #20
  %26 = load i64, ptr %2, align 8
  ret i64 %26
}